; Function Attrs: nounwind uwtable
define range(i32 -1, 1) i32 @pmix_thread_start(ptr noundef %0) local_unnamed_addr #1 {
  %2 = getelementptr inbounds nuw i8, ptr %0, i64 136
  %3 = getelementptr inbounds nuw i8, ptr %0, i64 120
  %4 = load ptr, ptr %3, align 8, !tbaa !3
  %5 = tail call i32 @pthread_create(ptr noundef nonnull %2, ptr noundef null, ptr noundef %4, ptr noundef %0) #11
  %6 = icmp ne i32 %5, 0
  %7 = sext i1 %6 to i32
  ret i32 %7
}